(lp0
(lp1
(iModCell
Cell
p2
(dp3
S'items'
p4
(lp5
sS'cost'
p6
(dp7
I0
I1
sI20
I31
ssS'coords'
p8
(I0
I0
tp9
sba(iModCell
Cell
p10
(dp11
g4
g5
sg6
(dp12
I0
I1
sI21
I31
ssg8
(I0
I1
tp13
sba(iModCell
Cell
p14
(dp15
g4
g5
sg6
(dp16
I0
I1
sI26
I4
sI22
I31
ssg8
(I0
I2
tp17
sba(iModCell
Cell
p18
(dp19
g4
g5
sg6
(dp20
I0
I1
sI27
I4
sI23
I31
ssg8
(I0
I3
tp21
sba(iModCell
Cell
p22
(dp23
g4
g5
sg6
(dp24
I0
I1
sI24
I31
sI28
I4
ssg8
(I0
I4
tp25
sba(iModCell
Cell
p26
(dp27
g4
g5
sg6
(dp28
I0
I1
sI25
I31
sI29
I4
ssg8
(I0
I5
tp29
sba(iModCell
Cell
p30
(dp31
g4
g5
sg6
(dp32
I0
I1
sI26
I31
sI30
I4
ssg8
(I0
I6
tp33
sba(iModCell
Cell
p34
(dp35
g4
g5
sg6
(dp36
I0
I1
sI27
I31
sI31
I4
ssg8
(I0
I7
tp37
sba(iModCell
Cell
p38
(dp39
g4
g5
sg6
(dp40
I0
I1
sI32
I4
sI51
I13
sI28
I31
ssg8
(I0
I8
tp41
sba(iModCell
Cell
p42
(dp43
g4
g5
sg6
(dp44
I0
I1
sI33
I4
sI50
I13
sI29
I31
ssg8
(I0
I9
tp45
sba(iModCell
Cell
p46
(dp47
g4
g5
sg6
(dp48
I0
I1
sI49
I13
sI34
I4
sI30
I31
ssg8
(I0
I10
tp49
sba(iModCell
Cell
p50
(dp51
g4
g5
sg6
(dp52
I0
I1
sI48
I13
sI35
I4
sI31
I31
ssg8
(I0
I11
tp53
sba(iModCell
Cell
p54
(dp55
g4
g5
sg6
(dp56
I0
I1
sI32
I31
sI36
I4
sI47
I13
ssg8
(I0
I12
tp57
sba(iModCell
Cell
p58
(dp59
g4
g5
sg6
(dp60
I0
I1
sI33
I31
sI37
I4
sI46
I13
ssg8
(I0
I13
tp61
sba(iModCell
Cell
p62
(dp63
g4
g5
sg6
(dp64
I0
I1
sI34
I31
sI45
I13
sI38
I4
ssg8
(I0
I14
tp65
sba(iModCell
Cell
p66
(dp67
g4
g5
sg6
(dp68
I0
I1
sI35
I31
sI44
I13
sI39
I4
ssg8
(I0
I15
tp69
sba(iModCell
Cell
p70
(dp71
g4
g5
sg6
(dp72
I0
I1
sI40
I4
sI43
I13
sI36
I31
ssg8
(I0
I16
tp73
sba(iModCell
Cell
p74
(dp75
g4
g5
sg6
(dp76
I0
I1
sI42
I13
ssg8
(I0
I17
tp77
sba(iModCell
Cell
p78
(dp79
g4
g5
sg6
(dp80
I0
I1
sI41
I13
ssg8
(I0
I18
tp81
sba(iModCell
Cell
p82
(dp83
g4
g5
sg6
(dp84
I0
I1
ssg8
(I0
I19
tp85
sbaa(lp86
(iModCell
Cell
p87
(dp88
g4
g5
sg6
(dp89
I0
I1
sI19
I43
ssg8
(I1
I0
tp90
sba(iModCell
Cell
p91
(dp92
g4
g5
sg6
(dp93
I0
I100000
ssg8
(I1
I1
tp94
sba(iModCell
Cell
p95
(dp96
g4
g5
sg6
(dp97
I0
I1
sI25
I4
ssg8
(I1
I2
tp98
sba(iModCell
Cell
p99
(dp100
g4
g5
sg6
(dp101
I0
I100000
ssg8
(I1
I3
tp102
sba(iModCell
Cell
p103
(dp104
g4
g5
sg6
(dp105
I0
I1
ssg8
(I1
I4
tp106
sba(iModCell
Cell
p107
(dp108
g4
g5
sg6
(dp109
I0
I100000
ssg8
(I1
I5
tp110
sba(iModCell
Cell
p111
(dp112
g4
g5
sg6
(dp113
I0
I1
ssg8
(I1
I6
tp114
sba(iModCell
Cell
p115
(dp116
g4
g5
sg6
(dp117
I0
I100000
ssg8
(I1
I7
tp118
sba(iModCell
Cell
p119
(dp120
g4
g5
sg6
(dp121
I0
I1
sI52
I13
ssg8
(I1
I8
tp122
sba(iModCell
Cell
p123
(dp124
g4
g5
sg6
(dp125
I0
I100000
ssg8
(I1
I9
tp126
sba(iModCell
Cell
p127
(dp128
g4
g5
sg6
(dp129
I0
I1
ssg8
(I1
I10
tp130
sba(iModCell
Cell
p131
(dp132
g4
g5
sg6
(dp133
I0
I100000
ssg8
(I1
I11
tp134
sba(iModCell
Cell
p135
(dp136
g4
g5
sg6
(dp137
I0
I1
ssg8
(I1
I12
tp138
sba(iModCell
Cell
p139
(dp140
g4
g5
sg6
(dp141
I0
I100000
ssg8
(I1
I13
tp142
sba(iModCell
Cell
p143
(dp144
g4
g5
sg6
(dp145
I0
I1
ssg8
(I1
I14
tp146
sba(iModCell
Cell
p147
(dp148
g4
g5
sg6
(dp149
I0
I100000
ssg8
(I1
I15
tp150
sba(iModCell
Cell
p151
(dp152
g4
g5
sg6
(dp153
I0
I1
sI37
I31
sI41
I4
sI42
I7
sI43
I4
sI46
I4
sI48
I4
ssg8
(I1
I16
tp154
sba(iModCell
Cell
p155
(dp156
g4
g5
sg6
(dp157
I0
I1
sI38
I31
sI41
I7
sI42
I4
sI44
I4
sI45
I4
sI47
I4
ssg8
(I1
I17
tp158
sba(iModCell
Cell
p159
(dp160
g4
g5
sg6
(dp161
I0
I1
sI39
I31
sI40
I31
sI43
I4
sI44
I4
sI45
I4
sI46
I4
ssg8
(I1
I18
tp162
sba(iModCell
Cell
p163
(dp164
g4
g5
sg6
(dp165
I0
I1
sI41
I13
ssg8
(I1
I19
tp166
sbaa(lp167
(iModCell
Cell
p168
(dp169
g4
g5
sg6
(dp170
I0
I1
sI20
I13
ssg8
(I2
I0
tp171
sba(iModCell
Cell
p172
(dp173
g4
g5
sg6
(dp174
I0
I100000
ssg8
(I2
I1
tp175
sba(iModCell
Cell
p176
(dp177
g4
g5
sg6
(dp178
I0
I1
sI24
I4
ssg8
(I2
I2
tp179
sba(iModCell
Cell
p180
(dp181
g4
g5
sg6
(dp182
I0
I1
ssg8
(I2
I3
tp183
sba(iModCell
Cell
p184
(dp185
g4
g5
sg6
(dp186
I0
I1
ssg8
(I2
I4
tp187
sba(iModCell
Cell
p188
(dp189
g4
g5
sg6
(dp190
I0
I1
ssg8
(I2
I5
tp191
sba(iModCell
Cell
p192
(dp193
g4
g5
sg6
(dp194
I0
I1
ssg8
(I2
I6
tp195
sba(iModCell
Cell
p196
(dp197
g4
g5
sg6
(dp198
I0
I1
ssg8
(I2
I7
tp199
sba(iModCell
Cell
p200
(dp201
g4
g5
sg6
(dp202
I0
I1
sI53
I13
ssg8
(I2
I8
tp203
sba(iModCell
Cell
p204
(dp205
g4
g5
sg6
(dp206
I0
I100000
ssg8
(I2
I9
tp207
sba(iModCell
Cell
p208
(dp209
g4
g5
sg6
(dp210
I0
I1
ssg8
(I2
I10
tp211
sba(iModCell
Cell
p212
(dp213
g4
g5
sg6
(dp214
I0
I100000
ssg8
(I2
I11
tp215
sba(iModCell
Cell
p216
(dp217
g4
g5
sg6
(dp218
I0
I1
ssg8
(I2
I12
tp219
sba(iModCell
Cell
p220
(dp221
g4
g5
sg6
(dp222
I0
I100000
ssg8
(I2
I13
tp223
sba(iModCell
Cell
p224
(dp225
g4
g5
sg6
(dp226
I0
I1
ssg8
(I2
I14
tp227
sba(iModCell
Cell
p228
(dp229
g4
g5
sg6
(dp230
I0
I100000
ssg8
(I2
I15
tp231
sba(iModCell
Cell
p232
(dp233
g4
g5
sg6
(dp234
I0
I1
sI49
I4
sI42
I4
sI43
I7
sI47
I4
ssg8
(I2
I16
tp235
sba(iModCell
Cell
p236
(dp237
g4
g5
sg6
(dp238
I0
I100000
ssg8
(I2
I17
tp239
sba(iModCell
Cell
p240
(dp241
g4
g5
sg6
(dp242
I0
I100000
ssg8
(I2
I18
tp243
sba(iModCell
Cell
p244
(dp245
g4
g5
sg6
(dp246
I0
I1
sI112
I4
sI42
I13
sI108
I4
ssg8
(I2
I19
tp247
sbaa(lp248
(iModCell
Cell
p249
(dp250
g4
g5
sg6
(dp251
I0
I1
sI21
I13
ssg8
(I3
I0
tp252
sba(iModCell
Cell
p253
(dp254
g4
g5
sg6
(dp255
I0
I1
sI24
I4
sI22
I4
ssg8
(I3
I1
tp256
sba(iModCell
Cell
p257
(dp258
g4
g5
sg6
(dp259
I0
I1
sI25
I4
sI23
I4
ssg8
(I3
I2
tp260
sba(iModCell
Cell
p261
(dp262
g4
g5
sg6
(dp263
I0
I100000
ssg8
(I3
I3
tp264
sba(iModCell
Cell
p265
(dp266
g4
g5
sg6
(dp267
I0
I1
ssg8
(I3
I4
tp268
sba(iModCell
Cell
p269
(dp270
g4
g5
sg6
(dp271
I0
I100000
ssg8
(I3
I5
tp272
sba(iModCell
Cell
p273
(dp274
g4
g5
sg6
(dp275
I0
I1
ssg8
(I3
I6
tp276
sba(iModCell
Cell
p277
(dp278
g4
g5
sg6
(dp279
I0
I100000
ssg8
(I3
I7
tp280
sba(iModCell
Cell
p281
(dp282
g4
g5
sg6
(dp283
I0
I1
sI54
I13
ssg8
(I3
I8
tp284
sba(iModCell
Cell
p285
(dp286
g4
g5
sg6
(dp287
I0
I100000
ssg8
(I3
I9
tp288
sba(iModCell
Cell
p289
(dp290
g4
g5
sg6
(dp291
I0
I1
ssg8
(I3
I10
tp292
sba(iModCell
Cell
p293
(dp294
g4
g5
sg6
(dp295
I0
I100000
ssg8
(I3
I11
tp296
sba(iModCell
Cell
p297
(dp298
g4
g5
sg6
(dp299
I0
I1
sI48
I4
sI52
I4
sI37
I4
sI54
I4
ssg8
(I3
I12
tp300
sba(iModCell
Cell
p301
(dp302
g4
g5
sg6
(dp303
I0
I1
sI51
I4
sI53
I4
sI38
I4
sI47
I4
ssg8
(I3
I13
tp304
sba(iModCell
Cell
p305
(dp306
g4
g5
sg6
(dp307
I0
I1
sI50
I4
sI52
I4
sI46
I4
sI39
I4
ssg8
(I3
I14
tp308
sba(iModCell
Cell
p309
(dp310
g4
g5
sg6
(dp311
I0
I1
sI49
I4
sI51
I4
sI45
I4
sI40
I4
ssg8
(I3
I15
tp312
sba(iModCell
Cell
p313
(dp314
g4
g5
sg6
(dp315
I0
I1
sI48
I4
sI50
I4
sI44
I7
sI41
I4
ssg8
(I3
I16
tp316
sba(iModCell
Cell
p317
(dp318
g4
g5
sg6
(dp319
I0
I100000
ssg8
(I3
I17
tp320
sba(iModCell
Cell
p321
(dp322
g4
g5
sg6
(dp323
I0
I100000
ssg8
(I3
I18
tp324
sba(iModCell
Cell
p325
(dp326
g4
g5
sg6
(dp327
I0
I1
sI107
I4
sI43
I13
sI111
I4
ssg8
(I3
I19
tp328
sbaa(lp329
(iModCell
Cell
p330
(dp331
g4
g5
sg6
(dp332
I0
I1
sI22
I10
ssg8
(I4
I0
tp333
sba(iModCell
Cell
p334
(dp335
g4
g5
sg6
(dp336
I0
I1
sI23
I4
ssg8
(I4
I1
tp337
sba(iModCell
Cell
p338
(dp339
g4
g5
sg6
(dp340
I0
I1
sI26
I4
ssg8
(I4
I2
tp341
sba(iModCell
Cell
p342
(dp343
g4
g5
sg6
(dp344
I0
I1
sI27
I4
ssg8
(I4
I3
tp345
sba(iModCell
Cell
p346
(dp347
g4
g5
sg6
(dp348
I0
I1
sI28
I4
ssg8
(I4
I4
tp349
sba(iModCell
Cell
p350
(dp351
g4
g5
sg6
(dp352
I0
I1
sI29
I4
ssg8
(I4
I5
tp353
sba(iModCell
Cell
p354
(dp355
g4
g5
sg6
(dp356
I0
I1
sI30
I4
ssg8
(I4
I6
tp357
sba(iModCell
Cell
p358
(dp359
g4
g5
sg6
(dp360
I0
I1
sI31
I4
ssg8
(I4
I7
tp361
sba(iModCell
Cell
p362
(dp363
g4
g5
sg6
(dp364
I0
I1
sI57
I4
sI32
I4
sI53
I4
sI55
I13
ssg8
(I4
I8
tp365
sba(iModCell
Cell
p366
(dp367
g4
g5
sg6
(dp368
I0
I1
sI56
I4
sI52
I4
sI33
I4
ssg8
(I4
I9
tp369
sba(iModCell
Cell
p370
(dp371
g4
g5
sg6
(dp372
I0
I1
sI57
I4
sI34
I4
sI51
I4
sI55
I4
ssg8
(I4
I10
tp373
sba(iModCell
Cell
p374
(dp375
g4
g5
sg6
(dp376
I0
I1
sI56
I4
sI50
I4
sI35
I4
sI54
I4
ssg8
(I4
I11
tp377
sba(iModCell
Cell
p378
(dp379
g4
g5
sg6
(dp380
I0
I1
sI49
I4
sI36
I4
sI53
I4
sI55
I4
ssg8
(I4
I12
tp381
sba(iModCell
Cell
p382
(dp383
g4
g5
sg6
(dp384
I0
I100000
ssg8
(I4
I13
tp385
sba(iModCell
Cell
p386
(dp387
g4
g5
sg6
(dp388
I0
I1
ssg8
(I4
I14
tp389
sba(iModCell
Cell
p390
(dp391
g4
g5
sg6
(dp392
I0
I100000
ssg8
(I4
I15
tp393
sba(iModCell
Cell
p394
(dp395
g4
g5
sg6
(dp396
I0
I1
sI45
I4
ssg8
(I4
I16
tp397
sba(iModCell
Cell
p398
(dp399
g4
g5
sg6
(dp400
I0
I1
ssg8
(I4
I17
tp401
sba(iModCell
Cell
p402
(dp403
g4
g5
sg6
(dp404
I0
I1
sI45
I13
ssg8
(I4
I18
tp405
sba(iModCell
Cell
p406
(dp407
g4
g5
sg6
(dp408
I0
I1
sI106
I4
sI44
I13
sI110
I4
ssg8
(I4
I19
tp409
sbaa(lp410
(iModCell
Cell
p411
(dp412
g4
g5
sg6
(dp413
I0
I1
sI23
I7
ssg8
(I5
I0
tp414
sba(iModCell
Cell
p415
(dp416
g4
g5
sg6
(dp417
I0
I1
ssg8
(I5
I1
tp418
sba(iModCell
Cell
p419
(dp420
g4
g5
sg6
(dp421
I0
I1
ssg8
(I5
I2
tp422
sba(iModCell
Cell
p423
(dp424
g4
g5
sg6
(dp425
I0
I1
ssg8
(I5
I3
tp426
sba(iModCell
Cell
p427
(dp428
g4
g5
sg6
(dp429
I0
I1
ssg8
(I5
I4
tp430
sba(iModCell
Cell
p431
(dp432
g4
g5
sg6
(dp433
I0
I1
ssg8
(I5
I5
tp434
sba(iModCell
Cell
p435
(dp436
g4
g5
sg6
(dp437
I0
I1
ssg8
(I5
I6
tp438
sba(iModCell
Cell
p439
(dp440
g4
g5
sg6
(dp441
I0
I1
ssg8
(I5
I7
tp442
sba(iModCell
Cell
p443
(dp444
g4
g5
sg6
(dp445
I0
I1
sI56
I13
sI58
I4
sI54
I4
ssg8
(I5
I8
tp446
sba(iModCell
Cell
p447
(dp448
g4
g5
sg6
(dp449
I0
I1
sI57
I13
sI59
I7
sI53
I4
sI55
I4
ssg8
(I5
I9
tp450
sba(iModCell
Cell
p451
(dp452
g4
g5
sg6
(dp453
I0
I1
sI58
I4
sI52
I4
ssg8
(I5
I10
tp454
sba(iModCell
Cell
p455
(dp456
g4
g5
sg6
(dp457
I0
I1
sI51
I4
ssg8
(I5
I11
tp458
sba(iModCell
Cell
p459
(dp460
g4
g5
sg6
(dp461
I0
I1
sI50
I4
ssg8
(I5
I12
tp462
sba(iModCell
Cell
p463
(dp464
g4
g5
sg6
(dp465
I0
I1
sI49
I4
ssg8
(I5
I13
tp466
sba(iModCell
Cell
p467
(dp468
g4
g5
sg6
(dp469
I0
I1
sI48
I4
ssg8
(I5
I14
tp470
sba(iModCell
Cell
p471
(dp472
g4
g5
sg6
(dp473
I0
I1
sI47
I4
ssg8
(I5
I15
tp474
sba(iModCell
Cell
p475
(dp476
g4
g5
sg6
(dp477
I0
I1
sI46
I4
ssg8
(I5
I16
tp478
sba(iModCell
Cell
p479
(dp480
g4
g5
sg6
(dp481
I0
I1
ssg8
(I5
I17
tp482
sba(iModCell
Cell
p483
(dp484
g4
g5
sg6
(dp485
I0
I1
sI46
I13
ssg8
(I5
I18
tp486
sba(iModCell
Cell
p487
(dp488
g4
g5
sg6
(dp489
I0
I1
sI105
I4
sI109
I4
ssg8
(I5
I19
tp490
sbaa(lp491
(iModCell
Cell
p492
(dp493
g4
g5
sg6
(dp494
I0
I1
sI24
I7
ssg8
(I6
I0
tp495
sba(iModCell
Cell
p496
(dp497
g4
g5
sg6
(dp498
I0
I1
ssg8
(I6
I1
tp499
sba(iModCell
Cell
p500
(dp501
g4
g5
sg6
(dp502
I0
I1
ssg8
(I6
I2
tp503
sba(iModCell
Cell
p504
(dp505
g4
g5
sg6
(dp506
I0
I100000
ssg8
(I6
I3
tp507
sba(iModCell
Cell
p508
(dp509
g4
g5
sg6
(dp510
I0
I100000
ssg8
(I6
I4
tp511
sba(iModCell
Cell
p512
(dp513
g4
g5
sg6
(dp514
I0
I100000
ssg8
(I6
I5
tp515
sba(iModCell
Cell
p516
(dp517
g4
g5
sg6
(dp518
I0
I100000
ssg8
(I6
I6
tp519
sba(iModCell
Cell
p520
(dp521
g4
g5
sg6
(dp522
I0
I100000
ssg8
(I6
I7
tp523
sba(iModCell
Cell
p524
(dp525
g4
g5
sg6
(dp526
I0
I100000
ssg8
(I6
I8
tp527
sba(iModCell
Cell
p528
(dp529
g4
g5
sg6
(dp530
I0
I1
sI56
I4
sI58
I13
sI60
I7
sI54
I4
ssg8
(I6
I9
tp531
sba(iModCell
Cell
p532
(dp533
g4
g5
sg6
(dp534
I0
I100000
ssg8
(I6
I10
tp535
sba(iModCell
Cell
p536
(dp537
g4
g5
sg6
(dp538
I0
I100000
ssg8
(I6
I11
tp539
sba(iModCell
Cell
p540
(dp541
g4
g5
sg6
(dp542
I0
I100000
ssg8
(I6
I12
tp543
sba(iModCell
Cell
p544
(dp545
g4
g5
sg6
(dp546
I0
I100000
ssg8
(I6
I13
tp547
sba(iModCell
Cell
p548
(dp549
g4
g5
sg6
(dp550
I0
I100000
ssg8
(I6
I14
tp551
sba(iModCell
Cell
p552
(dp553
g4
g5
sg6
(dp554
I0
I100000
ssg8
(I6
I15
tp555
sba(iModCell
Cell
p556
(dp557
g4
g5
sg6
(dp558
I0
I1
ssg8
(I6
I16
tp559
sba(iModCell
Cell
p560
(dp561
g4
g5
sg6
(dp562
I0
I1
ssg8
(I6
I17
tp563
sba(iModCell
Cell
p564
(dp565
g4
g5
sg6
(dp566
I0
I1
sI47
I13
ssg8
(I6
I18
tp567
sba(iModCell
Cell
p568
(dp569
g4
g5
sg6
(dp570
I0
I1
sI48
I13
sI108
I4
sI104
I4
ssg8
(I6
I19
tp571
sbaa(lp572
(iModCell
Cell
p573
(dp574
g4
g5
sg6
(dp575
I0
I1
sI25
I7
ssg8
(I7
I0
tp576
sba(iModCell
Cell
p577
(dp578
g4
g5
sg6
(dp579
I0
I1
ssg8
(I7
I1
tp580
sba(iModCell
Cell
p581
(dp582
g4
g5
sg6
(dp583
I0
I1
ssg8
(I7
I2
tp584
sba(iModCell
Cell
p585
(dp586
g4
g5
sg6
(dp587
I0
I1
ssg8
(I7
I3
tp588
sba(iModCell
Cell
p589
(dp590
g4
g5
sg6
(dp591
I0
I1
ssg8
(I7
I4
tp592
sba(iModCell
Cell
p593
(dp594
g4
g5
sg6
(dp595
I0
I1
ssg8
(I7
I5
tp596
sba(iModCell
Cell
p597
(dp598
g4
g5
sg6
(dp599
I0
I1
ssg8
(I7
I6
tp600
sba(iModCell
Cell
p601
(dp602
g4
g5
sg6
(dp603
I0
I1
ssg8
(I7
I7
tp604
sba(iModCell
Cell
p605
(dp606
g4
g5
sg6
(dp607
I0
I1
sI56
I4
sI58
I4
sI60
I13
sI62
I7
ssg8
(I7
I8
tp608
sba(iModCell
Cell
p609
(dp610
g4
g5
sg6
(dp611
I0
I1
sI57
I4
sI59
I13
sI61
I7
sI55
I4
ssg8
(I7
I9
tp612
sba(iModCell
Cell
p613
(dp614
g4
g5
sg6
(dp615
I0
I1
ssg8
(I7
I10
tp616
sba(iModCell
Cell
p617
(dp618
g4
g5
sg6
(dp619
I0
I1
ssg8
(I7
I11
tp620
sba(iModCell
Cell
p621
(dp622
g4
g5
sg6
(dp623
I0
I1
ssg8
(I7
I12
tp624
sba(iModCell
Cell
p625
(dp626
g4
g5
sg6
(dp627
I0
I1
ssg8
(I7
I13
tp628
sba(iModCell
Cell
p629
(dp630
g4
g5
sg6
(dp631
I0
I1
ssg8
(I7
I14
tp632
sba(iModCell
Cell
p633
(dp634
g4
g5
sg6
(dp635
I0
I1
ssg8
(I7
I15
tp636
sba(iModCell
Cell
p637
(dp638
g4
g5
sg6
(dp639
I0
I1
ssg8
(I7
I16
tp640
sba(iModCell
Cell
p641
(dp642
g4
g5
sg6
(dp643
I0
I100000
ssg8
(I7
I17
tp644
sba(iModCell
Cell
p645
(dp646
g4
g5
sg6
(dp647
I0
I100000
ssg8
(I7
I18
tp648
sba(iModCell
Cell
p649
(dp650
g4
g5
sg6
(dp651
I0
I1
sI49
I13
sI107
I4
sI103
I4
ssg8
(I7
I19
tp652
sbaa(lp653
(iModCell
Cell
p654
(dp655
g4
g5
sg6
(dp656
I0
I1
sI26
I7
ssg8
(I8
I0
tp657
sba(iModCell
Cell
p658
(dp659
g4
g5
sg6
(dp660
I0
I1
ssg8
(I8
I1
tp661
sba(iModCell
Cell
p662
(dp663
g4
g5
sg6
(dp664
I0
I1
ssg8
(I8
I2
tp665
sba(iModCell
Cell
p666
(dp667
g4
g5
sg6
(dp668
I0
I1
ssg8
(I8
I3
tp669
sba(iModCell
Cell
p670
(dp671
g4
g5
sg6
(dp672
I0
I1
ssg8
(I8
I4
tp673
sba(iModCell
Cell
p674
(dp675
g4
g5
sg6
(dp676
I0
I1
ssg8
(I8
I5
tp677
sba(iModCell
Cell
p678
(dp679
g4
g5
sg6
(dp680
I0
I1
ssg8
(I8
I6
tp681
sba(iModCell
Cell
p682
(dp683
g4
g5
sg6
(dp684
I0
I1
ssg8
(I8
I7
tp685
sba(iModCell
Cell
p686
(dp687
g4
g5
sg6
(dp688
I0
I1
sI57
I4
sI59
I4
sI61
I13
sI63
I7
ssg8
(I8
I8
tp689
sba(iModCell
Cell
p690
(dp691
g4
g5
sg6
(dp692
I0
I1
sI64
I7
sI58
I4
sI60
I4
sI62
I13
ssg8
(I8
I9
tp693
sba(iModCell
Cell
p694
(dp695
g4
g5
sg6
(dp696
I0
I1
ssg8
(I8
I10
tp697
sba(iModCell
Cell
p698
(dp699
g4
g5
sg6
(dp700
I0
I1
ssg8
(I8
I11
tp701
sba(iModCell
Cell
p702
(dp703
g4
g5
sg6
(dp704
I0
I1
ssg8
(I8
I12
tp705
sba(iModCell
Cell
p706
(dp707
g4
g5
sg6
(dp708
I0
I1
ssg8
(I8
I13
tp709
sba(iModCell
Cell
p710
(dp711
g4
g5
sg6
(dp712
I0
I1
ssg8
(I8
I14
tp713
sba(iModCell
Cell
p714
(dp715
g4
g5
sg6
(dp716
I0
I1
ssg8
(I8
I15
tp717
sba(iModCell
Cell
p718
(dp719
g4
g5
sg6
(dp720
I0
I1
ssg8
(I8
I16
tp721
sba(iModCell
Cell
p722
(dp723
g4
g5
sg6
(dp724
I0
I1
ssg8
(I8
I17
tp725
sba(iModCell
Cell
p726
(dp727
g4
g5
sg6
(dp728
I0
I1
sI51
I13
ssg8
(I8
I18
tp729
sba(iModCell
Cell
p730
(dp731
g4
g5
sg6
(dp732
I0
I1
sI50
I13
sI106
I4
sI102
I4
ssg8
(I8
I19
tp733
sbaa(lp734
(iModCell
Cell
p735
(dp736
g4
g5
sg6
(dp737
I0
I1
sI27
I7
ssg8
(I9
I0
tp738
sba(iModCell
Cell
p739
(dp740
g4
g5
sg6
(dp741
I0
I1
ssg8
(I9
I1
tp742
sba(iModCell
Cell
p743
(dp744
g4
g5
sg6
(dp745
I0
I1
ssg8
(I9
I2
tp746
sba(iModCell
Cell
p747
(dp748
g4
g5
sg6
(dp749
I0
I100000
ssg8
(I9
I3
tp750
sba(iModCell
Cell
p751
(dp752
g4
g5
sg6
(dp753
I0
I100000
ssg8
(I9
I4
tp754
sba(iModCell
Cell
p755
(dp756
g4
g5
sg6
(dp757
I0
I100000
ssg8
(I9
I5
tp758
sba(iModCell
Cell
p759
(dp760
g4
g5
sg6
(dp761
I0
I100000
ssg8
(I9
I6
tp762
sba(iModCell
Cell
p763
(dp764
g4
g5
sg6
(dp765
I0
I100000
ssg8
(I9
I7
tp766
sba(iModCell
Cell
p767
(dp768
g4
g5
sg6
(dp769
I0
I100000
ssg8
(I9
I8
tp770
sba(iModCell
Cell
p771
(dp772
g4
g5
sg6
(dp773
I0
I1
sI65
I7
sI59
I4
sI61
I4
sI63
I13
ssg8
(I9
I9
tp774
sba(iModCell
Cell
p775
(dp776
g4
g5
sg6
(dp777
I0
I100000
ssg8
(I9
I10
tp778
sba(iModCell
Cell
p779
(dp780
g4
g5
sg6
(dp781
I0
I100000
ssg8
(I9
I11
tp782
sba(iModCell
Cell
p783
(dp784
g4
g5
sg6
(dp785
I0
I100000
ssg8
(I9
I12
tp786
sba(iModCell
Cell
p787
(dp788
g4
g5
sg6
(dp789
I0
I100000
ssg8
(I9
I13
tp790
sba(iModCell
Cell
p791
(dp792
g4
g5
sg6
(dp793
I0
I100000
ssg8
(I9
I14
tp794
sba(iModCell
Cell
p795
(dp796
g4
g5
sg6
(dp797
I0
I100000
ssg8
(I9
I15
tp798
sba(iModCell
Cell
p799
(dp800
g4
g5
sg6
(dp801
I0
I1
ssg8
(I9
I16
tp802
sba(iModCell
Cell
p803
(dp804
g4
g5
sg6
(dp805
I0
I1
ssg8
(I9
I17
tp806
sba(iModCell
Cell
p807
(dp808
g4
g5
sg6
(dp809
I0
I1
sI52
I13
ssg8
(I9
I18
tp810
sba(iModCell
Cell
p811
(dp812
g4
g5
sg6
(dp813
I0
I1
sI105
I4
sI53
I13
sI101
I4
ssg8
(I9
I19
tp814
sbaa(lp815
(iModCell
Cell
p816
(dp817
g4
g5
sg6
(dp818
I0
I1
sI28
I7
ssg8
(I10
I0
tp819
sba(iModCell
Cell
p820
(dp821
g4
g5
sg6
(dp822
I0
I1
ssg8
(I10
I1
tp823
sba(iModCell
Cell
p824
(dp825
g4
g5
sg6
(dp826
I0
I1
ssg8
(I10
I2
tp827
sba(iModCell
Cell
p828
(dp829
g4
g5
sg6
(dp830
I0
I1
ssg8
(I10
I3
tp831
sba(iModCell
Cell
p832
(dp833
g4
g5
sg6
(dp834
I0
I1
ssg8
(I10
I4
tp835
sba(iModCell
Cell
p836
(dp837
g4
g5
sg6
(dp838
I0
I1
ssg8
(I10
I5
tp839
sba(iModCell
Cell
p840
(dp841
g4
g5
sg6
(dp842
I0
I1
ssg8
(I10
I6
tp843
sba(iModCell
Cell
p844
(dp845
g4
g5
sg6
(dp846
I0
I1
ssg8
(I10
I7
tp847
sba(iModCell
Cell
p848
(dp849
g4
g5
sg6
(dp850
I0
I1
sI65
I13
sI67
I7
sI61
I4
sI63
I4
ssg8
(I10
I8
tp851
sba(iModCell
Cell
p852
(dp853
g4
g5
sg6
(dp854
I0
I1
sI64
I13
sI66
I7
sI60
I4
sI62
I4
ssg8
(I10
I9
tp855
sba(iModCell
Cell
p856
(dp857
g4
g5
sg6
(dp858
I0
I1
ssg8
(I10
I10
tp859
sba(iModCell
Cell
p860
(dp861
g4
g5
sg6
(dp862
I0
I1
ssg8
(I10
I11
tp863
sba(iModCell
Cell
p864
(dp865
g4
g5
sg6
(dp866
I0
I1
ssg8
(I10
I12
tp867
sba(iModCell
Cell
p868
(dp869
g4
g5
sg6
(dp870
I0
I1
ssg8
(I10
I13
tp871
sba(iModCell
Cell
p872
(dp873
g4
g5
sg6
(dp874
I0
I1
ssg8
(I10
I14
tp875
sba(iModCell
Cell
p876
(dp877
g4
g5
sg6
(dp878
I0
I1
ssg8
(I10
I15
tp879
sba(iModCell
Cell
p880
(dp881
g4
g5
sg6
(dp882
I0
I1
ssg8
(I10
I16
tp883
sba(iModCell
Cell
p884
(dp885
g4
g5
sg6
(dp886
I0
I100000
ssg8
(I10
I17
tp887
sba(iModCell
Cell
p888
(dp889
g4
g5
sg6
(dp890
I0
I100000
ssg8
(I10
I18
tp891
sba(iModCell
Cell
p892
(dp893
g4
g5
sg6
(dp894
I0
I1
sI104
I4
sI100
I4
sI54
I13
ssg8
(I10
I19
tp895
sbaa(lp896
(iModCell
Cell
p897
(dp898
g4
g5
sg6
(dp899
I0
I1
sI29
I7
ssg8
(I11
I0
tp900
sba(iModCell
Cell
p901
(dp902
g4
g5
sg6
(dp903
I0
I1
ssg8
(I11
I1
tp904
sba(iModCell
Cell
p905
(dp906
g4
g5
sg6
(dp907
I0
I1
ssg8
(I11
I2
tp908
sba(iModCell
Cell
p909
(dp910
g4
g5
sg6
(dp911
I0
I1
ssg8
(I11
I3
tp912
sba(iModCell
Cell
p913
(dp914
g4
g5
sg6
(dp915
I0
I1
ssg8
(I11
I4
tp916
sba(iModCell
Cell
p917
(dp918
g4
g5
sg6
(dp919
I0
I1
ssg8
(I11
I5
tp920
sba(iModCell
Cell
p921
(dp922
g4
g5
sg6
(dp923
I0
I1
ssg8
(I11
I6
tp924
sba(iModCell
Cell
p925
(dp926
g4
g5
sg6
(dp927
I0
I1
ssg8
(I11
I7
tp928
sba(iModCell
Cell
p929
(dp930
g4
g5
sg6
(dp931
I0
I1
sI64
I4
sI66
I13
sI68
I7
sI62
I4
ssg8
(I11
I8
tp932
sba(iModCell
Cell
p933
(dp934
g4
g5
sg6
(dp935
I0
I1
sI65
I4
sI67
I13
sI69
I7
sI63
I4
ssg8
(I11
I9
tp936
sba(iModCell
Cell
p937
(dp938
g4
g5
sg6
(dp939
I0
I1
ssg8
(I11
I10
tp940
sba(iModCell
Cell
p941
(dp942
g4
g5
sg6
(dp943
I0
I1
ssg8
(I11
I11
tp944
sba(iModCell
Cell
p945
(dp946
g4
g5
sg6
(dp947
I0
I1
ssg8
(I11
I12
tp948
sba(iModCell
Cell
p949
(dp950
g4
g5
sg6
(dp951
I0
I1
ssg8
(I11
I13
tp952
sba(iModCell
Cell
p953
(dp954
g4
g5
sg6
(dp955
I0
I1
ssg8
(I11
I14
tp956
sba(iModCell
Cell
p957
(dp958
g4
g5
sg6
(dp959
I0
I1
ssg8
(I11
I15
tp960
sba(iModCell
Cell
p961
(dp962
g4
g5
sg6
(dp963
I0
I1
ssg8
(I11
I16
tp964
sba(iModCell
Cell
p965
(dp966
g4
g5
sg6
(dp967
I0
I1
ssg8
(I11
I17
tp968
sba(iModCell
Cell
p969
(dp970
g4
g5
sg6
(dp971
I0
I1
sI56
I13
ssg8
(I11
I18
tp972
sba(iModCell
Cell
p973
(dp974
g4
g5
sg6
(dp975
I0
I1
sI55
I13
sI99
I4
sI103
I4
ssg8
(I11
I19
tp976
sbaa(lp977
(iModCell
Cell
p978
(dp979
g4
g5
sg6
(dp980
I0
I1
sI30
I7
ssg8
(I12
I0
tp981
sba(iModCell
Cell
p982
(dp983
g4
g5
sg6
(dp984
I0
I1
ssg8
(I12
I1
tp985
sba(iModCell
Cell
p986
(dp987
g4
g5
sg6
(dp988
I0
I1
ssg8
(I12
I2
tp989
sba(iModCell
Cell
p990
(dp991
g4
g5
sg6
(dp992
I0
I100000
ssg8
(I12
I3
tp993
sba(iModCell
Cell
p994
(dp995
g4
g5
sg6
(dp996
I0
I100000
ssg8
(I12
I4
tp997
sba(iModCell
Cell
p998
(dp999
g4
g5
sg6
(dp1000
I0
I100000
ssg8
(I12
I5
tp1001
sba(iModCell
Cell
p1002
(dp1003
g4
g5
sg6
(dp1004
I0
I100000
ssg8
(I12
I6
tp1005
sba(iModCell
Cell
p1006
(dp1007
g4
g5
sg6
(dp1008
I0
I100000
ssg8
(I12
I7
tp1009
sba(iModCell
Cell
p1010
(dp1011
g4
g5
sg6
(dp1012
I0
I100000
ssg8
(I12
I8
tp1013
sba(iModCell
Cell
p1014
(dp1015
g4
g5
sg6
(dp1016
I0
I1
sI64
I4
sI66
I4
sI68
I13
sI70
I7
ssg8
(I12
I9
tp1017
sba(iModCell
Cell
p1018
(dp1019
g4
g5
sg6
(dp1020
I0
I100000
ssg8
(I12
I10
tp1021
sba(iModCell
Cell
p1022
(dp1023
g4
g5
sg6
(dp1024
I0
I100000
ssg8
(I12
I11
tp1025
sba(iModCell
Cell
p1026
(dp1027
g4
g5
sg6
(dp1028
I0
I100000
ssg8
(I12
I12
tp1029
sba(iModCell
Cell
p1030
(dp1031
g4
g5
sg6
(dp1032
I0
I100000
ssg8
(I12
I13
tp1033
sba(iModCell
Cell
p1034
(dp1035
g4
g5
sg6
(dp1036
I0
I100000
ssg8
(I12
I14
tp1037
sba(iModCell
Cell
p1038
(dp1039
g4
g5
sg6
(dp1040
I0
I100000
ssg8
(I12
I15
tp1041
sba(iModCell
Cell
p1042
(dp1043
g4
g5
sg6
(dp1044
I0
I1
ssg8
(I12
I16
tp1045
sba(iModCell
Cell
p1046
(dp1047
g4
g5
sg6
(dp1048
I0
I1
ssg8
(I12
I17
tp1049
sba(iModCell
Cell
p1050
(dp1051
g4
g5
sg6
(dp1052
I0
I1
sI57
I13
ssg8
(I12
I18
tp1053
sba(iModCell
Cell
p1054
(dp1055
g4
g5
sg6
(dp1056
I0
I1
sI58
I13
sI98
I4
sI102
I4
ssg8
(I12
I19
tp1057
sbaa(lp1058
(iModCell
Cell
p1059
(dp1060
g4
g5
sg6
(dp1061
I0
I1
sI31
I7
ssg8
(I13
I0
tp1062
sba(iModCell
Cell
p1063
(dp1064
g4
g5
sg6
(dp1065
I0
I1
ssg8
(I13
I1
tp1066
sba(iModCell
Cell
p1067
(dp1068
g4
g5
sg6
(dp1069
I0
I1
ssg8
(I13
I2
tp1070
sba(iModCell
Cell
p1071
(dp1072
g4
g5
sg6
(dp1073
I0
I1
ssg8
(I13
I3
tp1074
sba(iModCell
Cell
p1075
(dp1076
g4
g5
sg6
(dp1077
I0
I1
ssg8
(I13
I4
tp1078
sba(iModCell
Cell
p1079
(dp1080
g4
g5
sg6
(dp1081
I0
I1
ssg8
(I13
I5
tp1082
sba(iModCell
Cell
p1083
(dp1084
g4
g5
sg6
(dp1085
I0
I1
ssg8
(I13
I6
tp1086
sba(iModCell
Cell
p1087
(dp1088
g4
g5
sg6
(dp1089
I0
I1
ssg8
(I13
I7
tp1090
sba(iModCell
Cell
p1091
(dp1092
g4
g5
sg6
(dp1093
I0
I1
sI72
I7
sI66
I4
sI68
I4
sI70
I13
ssg8
(I13
I8
tp1094
sba(iModCell
Cell
p1095
(dp1096
g4
g5
sg6
(dp1097
I0
I1
sI65
I4
sI67
I4
sI69
I13
sI71
I7
ssg8
(I13
I9
tp1098
sba(iModCell
Cell
p1099
(dp1100
g4
g5
sg6
(dp1101
I0
I1
ssg8
(I13
I10
tp1102
sba(iModCell
Cell
p1103
(dp1104
g4
g5
sg6
(dp1105
I0
I1
ssg8
(I13
I11
tp1106
sba(iModCell
Cell
p1107
(dp1108
g4
g5
sg6
(dp1109
I0
I1
ssg8
(I13
I12
tp1110
sba(iModCell
Cell
p1111
(dp1112
g4
g5
sg6
(dp1113
I0
I1
ssg8
(I13
I13
tp1114
sba(iModCell
Cell
p1115
(dp1116
g4
g5
sg6
(dp1117
I0
I1
ssg8
(I13
I14
tp1118
sba(iModCell
Cell
p1119
(dp1120
g4
g5
sg6
(dp1121
I0
I1
ssg8
(I13
I15
tp1122
sba(iModCell
Cell
p1123
(dp1124
g4
g5
sg6
(dp1125
I0
I1
ssg8
(I13
I16
tp1126
sba(iModCell
Cell
p1127
(dp1128
g4
g5
sg6
(dp1129
I0
I100000
ssg8
(I13
I17
tp1130
sba(iModCell
Cell
p1131
(dp1132
g4
g5
sg6
(dp1133
I0
I100000
ssg8
(I13
I18
tp1134
sba(iModCell
Cell
p1135
(dp1136
g4
g5
sg6
(dp1137
I0
I1
sI97
I4
sI59
I13
sI101
I4
ssg8
(I13
I19
tp1138
sbaa(lp1139
(iModCell
Cell
p1140
(dp1141
g4
g5
sg6
(dp1142
I0
I1
sI32
I7
ssg8
(I14
I0
tp1143
sba(iModCell
Cell
p1144
(dp1145
g4
g5
sg6
(dp1146
I0
I1
ssg8
(I14
I1
tp1147
sba(iModCell
Cell
p1148
(dp1149
g4
g5
sg6
(dp1150
I0
I1
ssg8
(I14
I2
tp1151
sba(iModCell
Cell
p1152
(dp1153
g4
g5
sg6
(dp1154
I0
I1
ssg8
(I14
I3
tp1155
sba(iModCell
Cell
p1156
(dp1157
g4
g5
sg6
(dp1158
I0
I1
ssg8
(I14
I4
tp1159
sba(iModCell
Cell
p1160
(dp1161
g4
g5
sg6
(dp1162
I0
I1
ssg8
(I14
I5
tp1163
sba(iModCell
Cell
p1164
(dp1165
g4
g5
sg6
(dp1166
I0
I1
ssg8
(I14
I6
tp1167
sba(iModCell
Cell
p1168
(dp1169
g4
g5
sg6
(dp1170
I0
I1
ssg8
(I14
I7
tp1171
sba(iModCell
Cell
p1172
(dp1173
g4
g5
sg6
(dp1174
I0
I1
sI73
I7
sI67
I4
sI69
I4
sI71
I13
ssg8
(I14
I8
tp1175
sba(iModCell
Cell
p1176
(dp1177
g4
g5
sg6
(dp1178
I0
I1
sI72
I13
sI74
I7
sI68
I4
sI70
I4
ssg8
(I14
I9
tp1179
sba(iModCell
Cell
p1180
(dp1181
g4
g5
sg6
(dp1182
I0
I1
ssg8
(I14
I10
tp1183
sba(iModCell
Cell
p1184
(dp1185
g4
g5
sg6
(dp1186
I0
I1
ssg8
(I14
I11
tp1187
sba(iModCell
Cell
p1188
(dp1189
g4
g5
sg6
(dp1190
I0
I1
ssg8
(I14
I12
tp1191
sba(iModCell
Cell
p1192
(dp1193
g4
g5
sg6
(dp1194
I0
I1
ssg8
(I14
I13
tp1195
sba(iModCell
Cell
p1196
(dp1197
g4
g5
sg6
(dp1198
I0
I1
ssg8
(I14
I14
tp1199
sba(iModCell
Cell
p1200
(dp1201
g4
g5
sg6
(dp1202
I0
I1
ssg8
(I14
I15
tp1203
sba(iModCell
Cell
p1204
(dp1205
g4
g5
sg6
(dp1206
I0
I1
ssg8
(I14
I16
tp1207
sba(iModCell
Cell
p1208
(dp1209
g4
g5
sg6
(dp1210
I0
I1
ssg8
(I14
I17
tp1211
sba(iModCell
Cell
p1212
(dp1213
g4
g5
sg6
(dp1214
I0
I1
sI61
I13
ssg8
(I14
I18
tp1215
sba(iModCell
Cell
p1216
(dp1217
g4
g5
sg6
(dp1218
I0
I1
sI96
I4
sI60
I13
sI100
I4
ssg8
(I14
I19
tp1219
sbaa(lp1220
(iModCell
Cell
p1221
(dp1222
g4
g5
sg6
(dp1223
I0
I1
sI33
I7
ssg8
(I15
I0
tp1224
sba(iModCell
Cell
p1225
(dp1226
g4
g5
sg6
(dp1227
I0
I1
ssg8
(I15
I1
tp1228
sba(iModCell
Cell
p1229
(dp1230
g4
g5
sg6
(dp1231
I0
I1
ssg8
(I15
I2
tp1232
sba(iModCell
Cell
p1233
(dp1234
g4
g5
sg6
(dp1235
I0
I100000
ssg8
(I15
I3
tp1236
sba(iModCell
Cell
p1237
(dp1238
g4
g5
sg6
(dp1239
I0
I100000
ssg8
(I15
I4
tp1240
sba(iModCell
Cell
p1241
(dp1242
g4
g5
sg6
(dp1243
I0
I100000
ssg8
(I15
I5
tp1244
sba(iModCell
Cell
p1245
(dp1246
g4
g5
sg6
(dp1247
I0
I100000
ssg8
(I15
I6
tp1248
sba(iModCell
Cell
p1249
(dp1250
g4
g5
sg6
(dp1251
I0
I100000
ssg8
(I15
I7
tp1252
sba(iModCell
Cell
p1253
(dp1254
g4
g5
sg6
(dp1255
I0
I100000
ssg8
(I15
I8
tp1256
sba(iModCell
Cell
p1257
(dp1258
g4
g5
sg6
(dp1259
I0
I1
sI73
I13
sI75
I7
sI69
I4
sI71
I4
ssg8
(I15
I9
tp1260
sba(iModCell
Cell
p1261
(dp1262
g4
g5
sg6
(dp1263
I0
I100000
ssg8
(I15
I10
tp1264
sba(iModCell
Cell
p1265
(dp1266
g4
g5
sg6
(dp1267
I0
I100000
ssg8
(I15
I11
tp1268
sba(iModCell
Cell
p1269
(dp1270
g4
g5
sg6
(dp1271
I0
I100000
ssg8
(I15
I12
tp1272
sba(iModCell
Cell
p1273
(dp1274
g4
g5
sg6
(dp1275
I0
I100000
ssg8
(I15
I13
tp1276
sba(iModCell
Cell
p1277
(dp1278
g4
g5
sg6
(dp1279
I0
I100000
ssg8
(I15
I14
tp1280
sba(iModCell
Cell
p1281
(dp1282
g4
g5
sg6
(dp1283
I0
I100000
ssg8
(I15
I15
tp1284
sba(iModCell
Cell
p1285
(dp1286
g4
g5
sg6
(dp1287
I0
I1
ssg8
(I15
I16
tp1288
sba(iModCell
Cell
p1289
(dp1290
g4
g5
sg6
(dp1291
I0
I1
ssg8
(I15
I17
tp1292
sba(iModCell
Cell
p1293
(dp1294
g4
g5
sg6
(dp1295
I0
I1
sI62
I13
ssg8
(I15
I18
tp1296
sba(iModCell
Cell
p1297
(dp1298
g4
g5
sg6
(dp1299
I0
I1
sI95
I4
sI99
I4
sI63
I13
ssg8
(I15
I19
tp1300
sbaa(lp1301
(iModCell
Cell
p1302
(dp1303
g4
g5
sg6
(dp1304
I0
I1
sI34
I7
ssg8
(I16
I0
tp1305
sba(iModCell
Cell
p1306
(dp1307
g4
g5
sg6
(dp1308
I0
I1
ssg8
(I16
I1
tp1309
sba(iModCell
Cell
p1310
(dp1311
g4
g5
sg6
(dp1312
I0
I1
sI84
I4
ssg8
(I16
I2
tp1313
sba(iModCell
Cell
p1314
(dp1315
g4
g5
sg6
(dp1316
I0
I1
sI83
I4
ssg8
(I16
I3
tp1317
sba(iModCell
Cell
p1318
(dp1319
g4
g5
sg6
(dp1320
I0
I1
sI82
I4
ssg8
(I16
I4
tp1321
sba(iModCell
Cell
p1322
(dp1323
g4
g5
sg6
(dp1324
I0
I1
sI81
I4
ssg8
(I16
I5
tp1325
sba(iModCell
Cell
p1326
(dp1327
g4
g5
sg6
(dp1328
I0
I1
sI80
I4
sI82
I4
sI47
I4
ssg8
(I16
I6
tp1329
sba(iModCell
Cell
p1330
(dp1331
g4
g5
sg6
(dp1332
I0
I1
sI48
I4
sI83
I4
sI79
I4
ssg8
(I16
I7
tp1333
sba(iModCell
Cell
p1334
(dp1335
g4
g5
sg6
(dp1336
I0
I1
sI71
I4
sI73
I4
sI75
I13
sI77
I7
sI78
I4
sI49
I4
sI84
I4
ssg8
(I16
I8
tp1337
sba(iModCell
Cell
p1338
(dp1339
g4
g5
sg6
(dp1340
I0
I1
sI70
I4
sI72
I4
sI74
I13
sI76
I7
sI50
I4
sI85
I4
ssg8
(I16
I9
tp1341
sba(iModCell
Cell
p1342
(dp1343
g4
g5
sg6
(dp1344
I0
I1
ssg8
(I16
I10
tp1345
sba(iModCell
Cell
p1346
(dp1347
g4
g5
sg6
(dp1348
I0
I1
ssg8
(I16
I11
tp1349
sba(iModCell
Cell
p1350
(dp1351
g4
g5
sg6
(dp1352
I0
I1
ssg8
(I16
I12
tp1353
sba(iModCell
Cell
p1354
(dp1355
g4
g5
sg6
(dp1356
I0
I1
ssg8
(I16
I13
tp1357
sba(iModCell
Cell
p1358
(dp1359
g4
g5
sg6
(dp1360
I0
I1
ssg8
(I16
I14
tp1361
sba(iModCell
Cell
p1362
(dp1363
g4
g5
sg6
(dp1364
I0
I1
ssg8
(I16
I15
tp1365
sba(iModCell
Cell
p1366
(dp1367
g4
g5
sg6
(dp1368
I0
I1
ssg8
(I16
I16
tp1369
sba(iModCell
Cell
p1370
(dp1371
g4
g5
sg6
(dp1372
I0
I100000
ssg8
(I16
I17
tp1373
sba(iModCell
Cell
p1374
(dp1375
g4
g5
sg6
(dp1376
I0
I100000
ssg8
(I16
I18
tp1377
sba(iModCell
Cell
p1378
(dp1379
g4
g5
sg6
(dp1380
I0
I1
sI64
I13
sI98
I4
sI94
I4
ssg8
(I16
I19
tp1381
sbaa(lp1382
(iModCell
Cell
p1383
(dp1384
g4
g5
sg6
(dp1385
I0
I1
sI35
I7
ssg8
(I17
I0
tp1386
sba(iModCell
Cell
p1387
(dp1388
g4
g5
sg6
(dp1389
I0
I1
sI36
I7
ssg8
(I17
I1
tp1390
sba(iModCell
Cell
p1391
(dp1392
g4
g5
sg6
(dp1393
I0
I1
sI79
I4
sI83
I4
sI85
I4
sI37
I7
ssg8
(I17
I2
tp1394
sba(iModCell
Cell
p1395
(dp1396
g4
g5
sg6
(dp1397
I0
I1
sI82
I4
sI78
I4
sI38
I7
ssg8
(I17
I3
tp1398
sba(iModCell
Cell
p1399
(dp1400
g4
g5
sg6
(dp1401
I0
I1
sI81
I4
sI77
I4
sI39
I7
ssg8
(I17
I4
tp1402
sba(iModCell
Cell
p1403
(dp1404
g4
g5
sg6
(dp1405
I0
I1
sI80
I4
sI76
I4
sI40
I7
ssg8
(I17
I5
tp1406
sba(iModCell
Cell
p1407
(dp1408
g4
g5
sg6
(dp1409
I0
I1
sI41
I7
sI75
I4
sI46
I4
sI79
I4
sI81
I4
ssg8
(I17
I6
tp1410
sba(iModCell
Cell
p1411
(dp1412
g4
g5
sg6
(dp1413
I0
I1
sI42
I7
sI45
I4
sI78
I4
sI80
I4
sI74
I4
ssg8
(I17
I7
tp1414
sba(iModCell
Cell
p1415
(dp1416
g4
g5
sg6
(dp1417
I0
I1
sI43
I7
sI72
I4
sI44
I7
sI74
I4
sI75
I4
sI76
I13
sI77
I13
sI78
I7
sI79
I7
sI73
I4
ssg8
(I17
I8
tp1418
sba(iModCell
Cell
p1419
(dp1420
g4
g5
sg6
(dp1421
I0
I1
sI76
I4
sI45
I4
sI78
I7
sI80
I4
sI51
I4
sI86
I4
ssg8
(I17
I9
tp1422
sba(iModCell
Cell
p1423
(dp1424
g4
g5
sg6
(dp1425
I0
I1
ssg8
(I17
I10
tp1426
sba(iModCell
Cell
p1427
(dp1428
g4
g5
sg6
(dp1429
I0
I1
ssg8
(I17
I11
tp1430
sba(iModCell
Cell
p1431
(dp1432
g4
g5
sg6
(dp1433
I0
I1
ssg8
(I17
I12
tp1434
sba(iModCell
Cell
p1435
(dp1436
g4
g5
sg6
(dp1437
I0
I1
ssg8
(I17
I13
tp1438
sba(iModCell
Cell
p1439
(dp1440
g4
g5
sg6
(dp1441
I0
I1
ssg8
(I17
I14
tp1442
sba(iModCell
Cell
p1443
(dp1444
g4
g5
sg6
(dp1445
I0
I1
ssg8
(I17
I15
tp1446
sba(iModCell
Cell
p1447
(dp1448
g4
g5
sg6
(dp1449
I0
I1
ssg8
(I17
I16
tp1450
sba(iModCell
Cell
p1451
(dp1452
g4
g5
sg6
(dp1453
I0
I1
ssg8
(I17
I17
tp1454
sba(iModCell
Cell
p1455
(dp1456
g4
g5
sg6
(dp1457
I0
I1
sI66
I13
ssg8
(I17
I18
tp1458
sba(iModCell
Cell
p1459
(dp1460
g4
g5
sg6
(dp1461
I0
I1
sI65
I13
sI93
I4
sI97
I4
ssg8
(I17
I19
tp1462
sbaa(lp1463
(iModCell
Cell
p1464
(dp1465
g4
g5
sg6
(dp1466
I0
I1
ssg8
(I18
I0
tp1467
sba(iModCell
Cell
p1468
(dp1469
g4
g5
sg6
(dp1470
I0
I1
ssg8
(I18
I1
tp1471
sba(iModCell
Cell
p1472
(dp1473
g4
g5
sg6
(dp1474
I0
I1
sI80
I4
sI84
I4
sI86
I4
ssg8
(I18
I2
tp1475
sba(iModCell
Cell
p1476
(dp1477
g4
g5
sg6
(dp1478
I0
I100000
ssg8
(I18
I3
tp1479
sba(iModCell
Cell
p1480
(dp1481
g4
g5
sg6
(dp1482
I0
I100000
ssg8
(I18
I4
tp1483
sba(iModCell
Cell
p1484
(dp1485
g4
g5
sg6
(dp1486
I0
I100000
ssg8
(I18
I5
tp1487
sba(iModCell
Cell
p1488
(dp1489
g4
g5
sg6
(dp1490
I0
I100000
ssg8
(I18
I6
tp1491
sba(iModCell
Cell
p1492
(dp1493
g4
g5
sg6
(dp1494
I0
I100000
ssg8
(I18
I7
tp1495
sba(iModCell
Cell
p1496
(dp1497
g4
g5
sg6
(dp1498
I0
I100000
ssg8
(I18
I8
tp1499
sba(iModCell
Cell
p1500
(dp1501
g4
g5
sg6
(dp1502
I0
I1
sI99
I4
sI100
I4
sI102
I4
sI104
I7
sI77
I4
sI46
I4
sI79
I7
sI81
I4
sI52
I4
sI87
I4
ssg8
(I18
I9
tp1503
sba(iModCell
Cell
p1504
(dp1505
g4
g5
sg6
(dp1506
I0
I100000
ssg8
(I18
I10
tp1507
sba(iModCell
Cell
p1508
(dp1509
g4
g5
sg6
(dp1510
I0
I100000
ssg8
(I18
I11
tp1511
sba(iModCell
Cell
p1512
(dp1513
g4
g5
sg6
(dp1514
I0
I100000
ssg8
(I18
I12
tp1515
sba(iModCell
Cell
p1516
(dp1517
g4
g5
sg6
(dp1518
I0
I100000
ssg8
(I18
I13
tp1519
sba(iModCell
Cell
p1520
(dp1521
g4
g5
sg6
(dp1522
I0
I100000
ssg8
(I18
I14
tp1523
sba(iModCell
Cell
p1524
(dp1525
g4
g5
sg6
(dp1526
I0
I100000
ssg8
(I18
I15
tp1527
sba(iModCell
Cell
p1528
(dp1529
g4
g5
sg6
(dp1530
I0
I1
ssg8
(I18
I16
tp1531
sba(iModCell
Cell
p1532
(dp1533
g4
g5
sg6
(dp1534
I0
I1
ssg8
(I18
I17
tp1535
sba(iModCell
Cell
p1536
(dp1537
g4
g5
sg6
(dp1538
I0
I1
sI88
I4
sI67
I13
ssg8
(I18
I18
tp1539
sba(iModCell
Cell
p1540
(dp1541
g4
g5
sg6
(dp1542
I0
I1
sI96
I4
sI92
I4
sI87
I4
ssg8
(I18
I19
tp1543
sbaa(lp1544
(iModCell
Cell
p1545
(dp1546
g4
g5
sg6
(dp1547
I0
I1
ssg8
(I19
I0
tp1548
sba(iModCell
Cell
p1549
(dp1550
g4
g5
sg6
(dp1551
I0
I1
ssg8
(I19
I1
tp1552
sba(iModCell
Cell
p1553
(dp1554
g4
g5
sg6
(dp1555
I0
I1
sI81
I4
sI85
I4
sI87
I4
ssg8
(I19
I2
tp1556
sba(iModCell
Cell
p1557
(dp1558
g4
g5
sg6
(dp1559
I0
I1
ssg8
(I19
I3
tp1560
sba(iModCell
Cell
p1561
(dp1562
g4
g5
sg6
(dp1563
I0
I1
ssg8
(I19
I4
tp1564
sba(iModCell
Cell
p1565
(dp1566
g4
g5
sg6
(dp1567
I0
I1
ssg8
(I19
I5
tp1568
sba(iModCell
Cell
p1569
(dp1570
g4
g5
sg6
(dp1571
I0
I1
sI104
I4
sI81
I4
sI50
I4
sI83
I4
sI85
I4
sI56
I4
sI91
I4
ssg8
(I19
I6
tp1572
sba(iModCell
Cell
p1573
(dp1574
g4
g5
sg6
(dp1575
I0
I1
sI103
I4
sI80
I4
sI49
I4
sI82
I4
sI84
I4
sI55
I4
sI90
I4
ssg8
(I19
I7
tp1576
sba(iModCell
Cell
p1577
(dp1578
g4
g5
sg6
(dp1579
I0
I1
sI102
I4
sI79
I4
sI48
I4
sI81
I4
sI83
I4
sI54
I4
sI89
I4
ssg8
(I19
I8
tp1580
sba(iModCell
Cell
p1581
(dp1582
g4
g5
sg6
(dp1583
I0
I1
sI98
I4
sI101
I7
sI103
I7
sI78
I4
sI47
I4
sI80
I7
sI82
I4
sI53
I4
sI88
I4
ssg8
(I19
I9
tp1584
sba(iModCell
Cell
p1585
(dp1586
g4
g5
sg6
(dp1587
I0
I1
sI97
I4
ssg8
(I19
I10
tp1588
sba(iModCell
Cell
p1589
(dp1590
g4
g5
sg6
(dp1591
I0
I1
sI96
I4
ssg8
(I19
I11
tp1592
sba(iModCell
Cell
p1593
(dp1594
g4
g5
sg6
(dp1595
I0
I1
sI95
I4
ssg8
(I19
I12
tp1596
sba(iModCell
Cell
p1597
(dp1598
g4
g5
sg6
(dp1599
I0
I1
sI94
I4
ssg8
(I19
I13
tp1600
sba(iModCell
Cell
p1601
(dp1602
g4
g5
sg6
(dp1603
I0
I1
sI93
I4
ssg8
(I19
I14
tp1604
sba(iModCell
Cell
p1605
(dp1606
g4
g5
sg6
(dp1607
I0
I1
sI92
I4
ssg8
(I19
I15
tp1608
sba(iModCell
Cell
p1609
(dp1610
g4
g5
sg6
(dp1611
I0
I1
sI91
I4
ssg8
(I19
I16
tp1612
sba(iModCell
Cell
p1613
(dp1614
g4
g5
sg6
(dp1615
I0
I1
sI90
I4
ssg8
(I19
I17
tp1616
sba(iModCell
Cell
p1617
(dp1618
g4
g5
sg6
(dp1619
I0
I1
sI89
I4
sI68
I13
ssg8
(I19
I18
tp1620
sba(iModCell
Cell
p1621
(dp1622
g4
g5
sg6
(dp1623
I0
I1
sI91
I4
sI69
I13
sI86
I4
sI95
I4
ssg8
(I19
I19
tp1624
sbaa(lp1625
(iModCell
Cell
p1626
(dp1627
g4
g5
sg6
(dp1628
I0
I1
ssg8
(I20
I0
tp1629
sba(iModCell
Cell
p1630
(dp1631
g4
g5
sg6
(dp1632
I0
I1
ssg8
(I20
I1
tp1633
sba(iModCell
Cell
p1634
(dp1635
g4
g5
sg6
(dp1636
I0
I1
sI88
I4
sI82
I4
sI86
I4
ssg8
(I20
I2
tp1637
sba(iModCell
Cell
p1638
(dp1639
g4
g5
sg6
(dp1640
I0
I1
ssg8
(I20
I3
tp1641
sba(iModCell
Cell
p1642
(dp1643
g4
g5
sg6
(dp1644
I0
I1
ssg8
(I20
I4
tp1645
sba(iModCell
Cell
p1646
(dp1647
g4
g5
sg6
(dp1648
I0
I1
ssg8
(I20
I5
tp1649
sba(iModCell
Cell
p1650
(dp1651
g4
g5
sg6
(dp1652
I0
I1
sI105
I4
sI82
I4
sI51
I4
sI84
I4
sI86
I4
sI57
I4
sI92
I4
ssg8
(I20
I6
tp1653
sba(iModCell
Cell
p1654
(dp1655
g4
g5
sg6
(dp1656
I0
I1
sI106
I4
sI83
I4
sI52
I4
sI85
I4
sI87
I4
sI58
I4
sI93
I4
ssg8
(I20
I7
tp1657
sba(iModCell
Cell
p1658
(dp1659
g4
g5
sg6
(dp1660
I0
I1
sI107
I4
sI84
I4
sI53
I4
sI86
I4
sI88
I4
sI59
I4
sI94
I4
ssg8
(I20
I8
tp1661
sba(iModCell
Cell
p1662
(dp1663
g4
g5
sg6
(dp1664
I0
I1
sI100
I4
sI102
I7
sI108
I4
sI81
I4
sI85
I4
sI54
I4
sI87
I4
sI89
I4
sI60
I4
sI95
I4
ssg8
(I20
I9
tp1665
sba(iModCell
Cell
p1666
(dp1667
g4
g5
sg6
(dp1668
I0
I1
ssg8
(I20
I10
tp1669
sba(iModCell
Cell
p1670
(dp1671
g4
g5
sg6
(dp1672
I0
I1
ssg8
(I20
I11
tp1673
sba(iModCell
Cell
p1674
(dp1675
g4
g5
sg6
(dp1676
I0
I1
ssg8
(I20
I12
tp1677
sba(iModCell
Cell
p1678
(dp1679
g4
g5
sg6
(dp1680
I0
I1
ssg8
(I20
I13
tp1681
sba(iModCell
Cell
p1682
(dp1683
g4
g5
sg6
(dp1684
I0
I1
ssg8
(I20
I14
tp1685
sba(iModCell
Cell
p1686
(dp1687
g4
g5
sg6
(dp1688
I0
I1
ssg8
(I20
I15
tp1689
sba(iModCell
Cell
p1690
(dp1691
g4
g5
sg6
(dp1692
I0
I1
ssg8
(I20
I16
tp1693
sba(iModCell
Cell
p1694
(dp1695
g4
g5
sg6
(dp1696
I0
I100000
ssg8
(I20
I17
tp1697
sba(iModCell
Cell
p1698
(dp1699
g4
g5
sg6
(dp1700
I0
I100000
ssg8
(I20
I18
tp1701
sba(iModCell
Cell
p1702
(dp1703
g4
g5
sg6
(dp1704
I0
I1
sI90
I4
sI70
I13
sI85
I4
sI94
I4
ssg8
(I20
I19
tp1705
sbaa(lp1706
(iModCell
Cell
p1707
(dp1708
g4
g5
sg6
(dp1709
I0
I1
ssg8
(I21
I0
tp1710
sba(iModCell
Cell
p1711
(dp1712
g4
g5
sg6
(dp1713
I0
I1
ssg8
(I21
I1
tp1714
sba(iModCell
Cell
p1715
(dp1716
g4
g5
sg6
(dp1717
I0
I1
sI89
I4
sI83
I4
sI87
I4
ssg8
(I21
I2
tp1718
sba(iModCell
Cell
p1719
(dp1720
g4
g5
sg6
(dp1721
I0
I100000
ssg8
(I21
I3
tp1722
sba(iModCell
Cell
p1723
(dp1724
g4
g5
sg6
(dp1725
I0
I100000
ssg8
(I21
I4
tp1726
sba(iModCell
Cell
p1727
(dp1728
g4
g5
sg6
(dp1729
I0
I100000
ssg8
(I21
I5
tp1730
sba(iModCell
Cell
p1731
(dp1732
g4
g5
sg6
(dp1733
I0
I100000
ssg8
(I21
I6
tp1734
sba(iModCell
Cell
p1735
(dp1736
g4
g5
sg6
(dp1737
I0
I100000
ssg8
(I21
I7
tp1738
sba(iModCell
Cell
p1739
(dp1740
g4
g5
sg6
(dp1741
I0
I100000
ssg8
(I21
I8
tp1742
sba(iModCell
Cell
p1743
(dp1744
g4
g5
sg6
(dp1745
I0
I1
sI96
I4
sI99
I4
sI101
I7
sI109
I4
sI82
I4
sI86
I4
sI55
I4
sI88
I4
sI90
I4
sI61
I4
ssg8
(I21
I9
tp1746
sba(iModCell
Cell
p1747
(dp1748
g4
g5
sg6
(dp1749
I0
I100000
ssg8
(I21
I10
tp1750
sba(iModCell
Cell
p1751
(dp1752
g4
g5
sg6
(dp1753
I0
I100000
ssg8
(I21
I11
tp1754
sba(iModCell
Cell
p1755
(dp1756
g4
g5
sg6
(dp1757
I0
I100000
ssg8
(I21
I12
tp1758
sba(iModCell
Cell
p1759
(dp1760
g4
g5
sg6
(dp1761
I0
I100000
ssg8
(I21
I13
tp1762
sba(iModCell
Cell
p1763
(dp1764
g4
g5
sg6
(dp1765
I0
I100000
ssg8
(I21
I14
tp1766
sba(iModCell
Cell
p1767
(dp1768
g4
g5
sg6
(dp1769
I0
I100000
ssg8
(I21
I15
tp1770
sba(iModCell
Cell
p1771
(dp1772
g4
g5
sg6
(dp1773
I0
I1
ssg8
(I21
I16
tp1774
sba(iModCell
Cell
p1775
(dp1776
g4
g5
sg6
(dp1777
I0
I1
ssg8
(I21
I17
tp1778
sba(iModCell
Cell
p1779
(dp1780
g4
g5
sg6
(dp1781
I0
I1
sI72
I13
ssg8
(I21
I18
tp1782
sba(iModCell
Cell
p1783
(dp1784
g4
g5
sg6
(dp1785
I0
I1
sI89
I4
sI84
I4
sI93
I4
sI71
I13
ssg8
(I21
I19
tp1786
sbaa(lp1787
(iModCell
Cell
p1788
(dp1789
g4
g5
sg6
(dp1790
I0
I1
ssg8
(I22
I0
tp1791
sba(iModCell
Cell
p1792
(dp1793
g4
g5
sg6
(dp1794
I0
I1
ssg8
(I22
I1
tp1795
sba(iModCell
Cell
p1796
(dp1797
g4
g5
sg6
(dp1798
I0
I1
sI88
I4
sI90
I4
sI84
I4
ssg8
(I22
I2
tp1799
sba(iModCell
Cell
p1800
(dp1801
g4
g5
sg6
(dp1802
I0
I1
ssg8
(I22
I3
tp1803
sba(iModCell
Cell
p1804
(dp1805
g4
g5
sg6
(dp1806
I0
I1
ssg8
(I22
I4
tp1807
sba(iModCell
Cell
p1808
(dp1809
g4
g5
sg6
(dp1810
I0
I1
ssg8
(I22
I5
tp1811
sba(iModCell
Cell
p1812
(dp1813
g4
g5
sg6
(dp1814
I0
I1
sI65
I4
sI100
I4
sI113
I4
sI90
I4
sI59
I4
sI92
I4
sI94
I4
ssg8
(I22
I6
tp1815
sba(iModCell
Cell
p1816
(dp1817
g4
g5
sg6
(dp1818
I0
I1
sI64
I4
sI99
I4
sI112
I4
sI89
I4
sI58
I4
sI91
I4
sI93
I4
ssg8
(I22
I7
tp1819
sba(iModCell
Cell
p1820
(dp1821
g4
g5
sg6
(dp1822
I0
I1
sI98
I4
sI111
I4
sI88
I4
sI57
I4
sI90
I4
sI92
I4
sI63
I4
ssg8
(I22
I8
tp1823
sba(iModCell
Cell
p1824
(dp1825
g4
g5
sg6
(dp1826
I0
I1
sI97
I4
sI98
I4
sI100
I7
sI110
I4
sI83
I4
sI87
I4
sI56
I4
sI89
I4
sI91
I4
sI62
I4
ssg8
(I22
I9
tp1827
sba(iModCell
Cell
p1828
(dp1829
g4
g5
sg6
(dp1830
I0
I1
ssg8
(I22
I10
tp1831
sba(iModCell
Cell
p1832
(dp1833
g4
g5
sg6
(dp1834
I0
I1
ssg8
(I22
I11
tp1835
sba(iModCell
Cell
p1836
(dp1837
g4
g5
sg6
(dp1838
I0
I1
ssg8
(I22
I12
tp1839
sba(iModCell
Cell
p1840
(dp1841
g4
g5
sg6
(dp1842
I0
I1
ssg8
(I22
I13
tp1843
sba(iModCell
Cell
p1844
(dp1845
g4
g5
sg6
(dp1846
I0
I1
ssg8
(I22
I14
tp1847
sba(iModCell
Cell
p1848
(dp1849
g4
g5
sg6
(dp1850
I0
I1
ssg8
(I22
I15
tp1851
sba(iModCell
Cell
p1852
(dp1853
g4
g5
sg6
(dp1854
I0
I1
ssg8
(I22
I16
tp1855
sba(iModCell
Cell
p1856
(dp1857
g4
g5
sg6
(dp1858
I0
I1
ssg8
(I22
I17
tp1859
sba(iModCell
Cell
p1860
(dp1861
g4
g5
sg6
(dp1862
I0
I1
sI73
I13
ssg8
(I22
I18
tp1863
sba(iModCell
Cell
p1864
(dp1865
g4
g5
sg6
(dp1866
I0
I1
sI88
I4
sI74
I13
sI83
I4
sI92
I4
ssg8
(I22
I19
tp1867
sbaa(lp1868
(iModCell
Cell
p1869
(dp1870
g4
g5
sg6
(dp1871
I0
I1
ssg8
(I23
I0
tp1872
sba(iModCell
Cell
p1873
(dp1874
g4
g5
sg6
(dp1875
I0
I1
ssg8
(I23
I1
tp1876
sba(iModCell
Cell
p1877
(dp1878
g4
g5
sg6
(dp1879
I0
I1
sI89
I4
sI91
I4
sI85
I4
ssg8
(I23
I2
tp1880
sba(iModCell
Cell
p1881
(dp1882
g4
g5
sg6
(dp1883
I0
I1
ssg8
(I23
I3
tp1884
sba(iModCell
Cell
p1885
(dp1886
g4
g5
sg6
(dp1887
I0
I1
ssg8
(I23
I4
tp1888
sba(iModCell
Cell
p1889
(dp1890
g4
g5
sg6
(dp1891
I0
I1
ssg8
(I23
I5
tp1892
sba(iModCell
Cell
p1893
(dp1894
g4
g5
sg6
(dp1895
I0
I1
sI66
I4
sI101
I4
sI114
I4
sI91
I4
sI60
I4
sI93
I4
sI95
I4
ssg8
(I23
I6
tp1896
sba(iModCell
Cell
p1897
(dp1898
g4
g5
sg6
(dp1899
I0
I1
sI96
I4
sI67
I4
sI102
I4
sI115
I4
sI92
I4
sI61
I4
sI94
I4
ssg8
(I23
I7
tp1900
sba(iModCell
Cell
p1901
(dp1902
g4
g5
sg6
(dp1903
I0
I1
sI97
I4
sI68
I4
sI103
I4
sI116
I4
sI93
I4
sI62
I4
sI95
I4
ssg8
(I23
I8
tp1904
sba(iModCell
Cell
p1905
(dp1906
g4
g5
sg6
(dp1907
I0
I1
sI97
I4
sI98
I4
sI99
I7
sI69
I4
sI104
I4
sI96
I4
sI84
I4
sI117
I4
sI94
I4
sI63
I4
ssg8
(I23
I9
tp1908
sba(iModCell
Cell
p1909
(dp1910
g4
g5
sg6
(dp1911
I0
I1
ssg8
(I23
I10
tp1912
sba(iModCell
Cell
p1913
(dp1914
g4
g5
sg6
(dp1915
I0
I1
ssg8
(I23
I11
tp1916
sba(iModCell
Cell
p1917
(dp1918
g4
g5
sg6
(dp1919
I0
I1
ssg8
(I23
I12
tp1920
sba(iModCell
Cell
p1921
(dp1922
g4
g5
sg6
(dp1923
I0
I1
ssg8
(I23
I13
tp1924
sba(iModCell
Cell
p1925
(dp1926
g4
g5
sg6
(dp1927
I0
I1
ssg8
(I23
I14
tp1928
sba(iModCell
Cell
p1929
(dp1930
g4
g5
sg6
(dp1931
I0
I1
ssg8
(I23
I15
tp1932
sba(iModCell
Cell
p1933
(dp1934
g4
g5
sg6
(dp1935
I0
I1
ssg8
(I23
I16
tp1936
sba(iModCell
Cell
p1937
(dp1938
g4
g5
sg6
(dp1939
I0
I100000
ssg8
(I23
I17
tp1940
sba(iModCell
Cell
p1941
(dp1942
g4
g5
sg6
(dp1943
I0
I100000
ssg8
(I23
I18
tp1944
sba(iModCell
Cell
p1945
(dp1946
g4
g5
sg6
(dp1947
I0
I1
sI75
I13
sI82
I4
sI91
I4
sI87
I4
ssg8
(I23
I19
tp1948
sbaa(lp1949
(iModCell
Cell
p1950
(dp1951
g4
g5
sg6
(dp1952
I0
I1
ssg8
(I24
I0
tp1953
sba(iModCell
Cell
p1954
(dp1955
g4
g5
sg6
(dp1956
I0
I1
ssg8
(I24
I1
tp1957
sba(iModCell
Cell
p1958
(dp1959
g4
g5
sg6
(dp1960
I0
I1
sI90
I4
sI92
I4
sI86
I4
ssg8
(I24
I2
tp1961
sba(iModCell
Cell
p1962
(dp1963
g4
g5
sg6
(dp1964
I0
I100000
ssg8
(I24
I3
tp1965
sba(iModCell
Cell
p1966
(dp1967
g4
g5
sg6
(dp1968
I0
I100000
ssg8
(I24
I4
tp1969
sba(iModCell
Cell
p1970
(dp1971
g4
g5
sg6
(dp1972
I0
I100000
ssg8
(I24
I5
tp1973
sba(iModCell
Cell
p1974
(dp1975
g4
g5
sg6
(dp1976
I0
I100000
ssg8
(I24
I6
tp1977
sba(iModCell
Cell
p1978
(dp1979
g4
g5
sg6
(dp1980
I0
I100000
ssg8
(I24
I7
tp1981
sba(iModCell
Cell
p1982
(dp1983
g4
g5
sg6
(dp1984
I0
I100000
ssg8
(I24
I8
tp1985
sba(iModCell
Cell
p1986
(dp1987
g4
g5
sg6
(dp1988
I0
I1
sI96
I4
sI98
I7
sI99
I4
sI70
I4
sI97
I4
sI64
I4
sI105
I4
sI85
I4
sI118
I4
sI95
I4
ssg8
(I24
I9
tp1989
sba(iModCell
Cell
p1990
(dp1991
g4
g5
sg6
(dp1992
I0
I100000
ssg8
(I24
I10
tp1993
sba(iModCell
Cell
p1994
(dp1995
g4
g5
sg6
(dp1996
I0
I100000
ssg8
(I24
I11
tp1997
sba(iModCell
Cell
p1998
(dp1999
g4
g5
sg6
(dp2000
I0
I100000
ssg8
(I24
I12
tp2001
sba(iModCell
Cell
p2002
(dp2003
g4
g5
sg6
(dp2004
I0
I100000
ssg8
(I24
I13
tp2005
sba(iModCell
Cell
p2006
(dp2007
g4
g5
sg6
(dp2008
I0
I100000
ssg8
(I24
I14
tp2009
sba(iModCell
Cell
p2010
(dp2011
g4
g5
sg6
(dp2012
I0
I100000
ssg8
(I24
I15
tp2013
sba(iModCell
Cell
p2014
(dp2015
g4
g5
sg6
(dp2016
I0
I1
sI80
I4
sI82
I7
ssg8
(I24
I16
tp2017
sba(iModCell
Cell
p2018
(dp2019
g4
g5
sg6
(dp2020
I0
I1
sI81
I10
ssg8
(I24
I17
tp2021
sba(iModCell
Cell
p2022
(dp2023
g4
g5
sg6
(dp2024
I0
I1
sI80
I7
sI77
I13
sI85
I4
sI89
I4
ssg8
(I24
I18
tp2025
sba(iModCell
Cell
p2026
(dp2027
g4
g5
sg6
(dp2028
I0
I1
sI81
I4
sI90
I4
sI76
I13
sI86
I4
ssg8
(I24
I19
tp2029
sbaa(lp2030
(iModCell
Cell
p2031
(dp2032
g4
g5
sg6
(dp2033
I0
I1
ssg8
(I25
I0
tp2034
sba(iModCell
Cell
p2035
(dp2036
g4
g5
sg6
(dp2037
I0
I1
ssg8
(I25
I1
tp2038
sba(iModCell
Cell
p2039
(dp2040
g4
g5
sg6
(dp2041
I0
I1
sI91
I4
sI93
I4
sI87
I4
ssg8
(I25
I2
tp2042
sba(iModCell
Cell
p2043
(dp2044
g4
g5
sg6
(dp2045
I0
I1
sI88
I4
sI92
I4
sI94
I4
ssg8
(I25
I3
tp2046
sba(iModCell
Cell
p2047
(dp2048
g4
g5
sg6
(dp2049
I0
I1
sI89
I4
sI93
I4
sI95
I4
ssg8
(I25
I4
tp2050
sba(iModCell
Cell
p2051
(dp2052
g4
g5
sg6
(dp2053
I0
I1
sI96
I4
sI90
I4
sI94
I4
ssg8
(I25
I5
tp2054
sba(iModCell
Cell
p2055
(dp2056
g4
g5
sg6
(dp2057
I0
I1
sI68
I4
sI69
I4
sI74
I4
sI75
I4
sI89
I4
sI90
I4
sI91
I7
sI92
I7
sI93
I4
sI94
I4
sI95
I4
sI96
I4
sI97
I4
sI98
I4
sI99
I4
sI100
I4
sI101
I4
sI102
I4
sI103
I4
sI104
I4
sI109
I4
sI110
I4
sI122
I4
ssg8
(I25
I6
tp2058
sba(iModCell
Cell
p2059
(dp2060
g4
g5
sg6
(dp2061
I0
I1
sI67
I4
sI70
I4
sI73
I4
sI76
I4
sI88
I4
sI90
I4
sI91
I4
sI92
I7
sI93
I7
sI95
I7
sI97
I4
sI98
I4
sI99
I4
sI100
I4
sI101
I4
sI102
I4
sI103
I4
sI105
I4
sI108
I4
sI111
I4
sI121
I4
ssg8
(I25
I7
tp2062
sba(iModCell
Cell
p2063
(dp2064
g4
g5
sg6
(dp2065
I0
I1
sI66
I4
sI71
I4
sI72
I4
sI77
I4
sI87
I4
sI89
I4
sI91
I7
sI92
I4
sI94
I4
sI96
I7
sI97
I4
sI98
I4
sI99
I4
sI100
I4
sI101
I4
sI102
I4
sI104
I4
sI106
I4
sI107
I4
sI112
I4
sI120
I4
ssg8
(I25
I8
tp2066
sba(iModCell
Cell
p2067
(dp2068
g4
g5
sg6
(dp2069
I0
I1
sI65
I4
sI71
I4
sI72
I4
sI78
I4
sI86
I4
sI88
I4
sI90
I7
sI93
I4
sI95
I4
sI96
I4
sI97
I7
sI98
I4
sI99
I4
sI100
I4
sI101
I4
sI103
I4
sI105
I4
sI106
I4
sI107
I4
sI113
I4
sI119
I4
ssg8
(I25
I9
tp2070
sba(iModCell
Cell
p2071
(dp2072
g4
g5
sg6
(dp2073
I0
I1
sI100
I4
sI102
I4
sI104
I4
sI73
I4
sI106
I4
sI108
I4
sI79
I4
sI114
I4
sI87
I4
sI89
I7
sI94
I4
ssg8
(I25
I10
tp2074
sba(iModCell
Cell
p2075
(dp2076
g4
g5
sg6
(dp2077
I0
I1
sI101
I7
sI103
I4
sI105
I4
sI74
I4
sI107
I4
sI109
I4
sI80
I4
sI115
I4
sI86
I4
sI88
I7
sI95
I4
ssg8
(I25
I11
tp2078
sba(iModCell
Cell
p2079
(dp2080
g4
g5
sg6
(dp2081
I0
I1
sI96
I4
sI102
I7
sI104
I4
sI106
I4
sI75
I4
sI108
I4
sI110
I4
sI81
I4
sI116
I4
sI85
I4
sI87
I7
ssg8
(I25
I12
tp2082
sba(iModCell
Cell
p2083
(dp2084
g4
g5
sg6
(dp2085
I0
I1
sI97
I4
sI103
I7
sI105
I4
sI107
I4
sI76
I4
sI109
I4
sI111
I4
sI82
I4
sI84
I4
sI117
I4
sI86
I7
ssg8
(I25
I13
tp2086
sba(iModCell
Cell
p2087
(dp2088
g4
g5
sg6
(dp2089
I0
I1
sI98
I4
sI104
I7
sI106
I4
sI108
I4
sI77
I4
sI110
I4
sI112
I4
sI83
I7
sI85
I7
sI118
I4
ssg8
(I25
I14
tp2090
sba(iModCell
Cell
p2091
(dp2092
g4
g5
sg6
(dp2093
I0
I1
sI99
I4
sI105
I7
sI107
I4
sI109
I4
sI78
I4
sI111
I4
sI113
I4
sI82
I4
sI84
I10
sI119
I4
ssg8
(I25
I15
tp2094
sba(iModCell
Cell
p2095
(dp2096
g4
g5
sg6
(dp2097
I0
I1
sI100
I4
sI106
I7
sI108
I4
sI110
I4
sI79
I4
sI112
I4
sI81
I4
sI114
I4
sI83
I7
sI85
I4
sI120
I4
ssg8
(I25
I16
tp2098
sba(iModCell
Cell
p2099
(dp2100
g4
g5
sg6
(dp2101
I0
I1
sI101
I4
sI107
I7
sI109
I4
sI111
I4
sI80
I4
sI113
I4
sI82
I4
sI115
I4
sI86
I4
sI121
I4
ssg8
(I25
I17
tp2102
sba(iModCell
Cell
p2103
(dp2104
g4
g5
sg6
(dp2105
I0
I1
sI102
I4
sI108
I7
sI78
I13
sI79
I13
sI112
I4
sI114
I4
sI83
I4
sI116
I4
sI110
I4
sI87
I4
sI88
I4
sI84
I4
sI122
I4
ssg8
(I25
I18
tp2106
sba(iModCell
Cell
p2107
(dp2108
g4
g5
sg6
(dp2109
I0
I1
sI80
I4
ssg8
(I25
I19
tp2110
sbaa(lp2111
(iModCell
Cell
p2112
(dp2113
g4
g5
sg6
(dp2114
I0
I1
ssg8
(I26
I0
tp2115
sba(iModCell
Cell
p2116
(dp2117
g4
g5
sg6
(dp2118
I0
I1
ssg8
(I26
I1
tp2119
sba(iModCell
Cell
p2120
(dp2121
g4
g5
sg6
(dp2122
I0
I100000
ssg8
(I26
I2
tp2123
sba(iModCell
Cell
p2124
(dp2125
g4
g5
sg6
(dp2126
I0
I1
ssg8
(I26
I3
tp2127
sba(iModCell
Cell
p2128
(dp2129
g4
g5
sg6
(dp2130
I0
I100000
ssg8
(I26
I4
tp2131
sba(iModCell
Cell
p2132
(dp2133
g4
g5
sg6
(dp2134
I0
I1
ssg8
(I26
I5
tp2135
sba(iModCell
Cell
p2136
(dp2137
g4
g5
sg6
(dp2138
I0
I100000
ssg8
(I26
I6
tp2139
sba(iModCell
Cell
p2140
(dp2141
g4
g5
sg6
(dp2142
I0
I1
sI93
I4
sI94
I7
ssg8
(I26
I7
tp2143
sba(iModCell
Cell
p2144
(dp2145
g4
g5
sg6
(dp2146
I0
I100000
ssg8
(I26
I8
tp2147
sba(iModCell
Cell
p2148
(dp2149
g4
g5
sg6
(dp2150
I0
I1
ssg8
(I26
I9
tp2151
sba(iModCell
Cell
p2152
(dp2153
g4
g5
sg6
(dp2154
I0
I100000
ssg8
(I26
I10
tp2155
sba(iModCell
Cell
p2156
(dp2157
g4
g5
sg6
(dp2158
I0
I1
sI100
I4
ssg8
(I26
I11
tp2159
sba(iModCell
Cell
p2160
(dp2161
g4
g5
sg6
(dp2162
I0
I100000
ssg8
(I26
I12
tp2163
sba(iModCell
Cell
p2164
(dp2165
g4
g5
sg6
(dp2166
I0
I1
ssg8
(I26
I13
tp2167
sba(iModCell
Cell
p2168
(dp2169
g4
g5
sg6
(dp2170
I0
I100000
ssg8
(I26
I14
tp2171
sba(iModCell
Cell
p2172
(dp2173
g4
g5
sg6
(dp2174
I0
I1
ssg8
(I26
I15
tp2175
sba(iModCell
Cell
p2176
(dp2177
g4
g5
sg6
(dp2178
I0
I100000
ssg8
(I26
I16
tp2179
sba(iModCell
Cell
p2180
(dp2181
g4
g5
sg6
(dp2182
I0
I1
ssg8
(I26
I17
tp2183
sba(iModCell
Cell
p2184
(dp2185
g4
g5
sg6
(dp2186
I0
I100000
ssg8
(I26
I18
tp2187
sba(iModCell
Cell
p2188
(dp2189
g4
g5
sg6
(dp2190
I0
I1
ssg8
(I26
I19
tp2191
sbaa(lp2192
(iModCell
Cell
p2193
(dp2194
g4
g5
sg6
(dp2195
I0
I1
ssg8
(I27
I0
tp2196
sba(iModCell
Cell
p2197
(dp2198
g4
g5
sg6
(dp2199
I0
I1
ssg8
(I27
I1
tp2200
sba(iModCell
Cell
p2201
(dp2202
g4
g5
sg6
(dp2203
I0
I100000
ssg8
(I27
I2
tp2204
sba(iModCell
Cell
p2205
(dp2206
g4
g5
sg6
(dp2207
I0
I1
ssg8
(I27
I3
tp2208
sba(iModCell
Cell
p2209
(dp2210
g4
g5
sg6
(dp2211
I0
I100000
ssg8
(I27
I4
tp2212
sba(iModCell
Cell
p2213
(dp2214
g4
g5
sg6
(dp2215
I0
I1
ssg8
(I27
I5
tp2216
sba(iModCell
Cell
p2217
(dp2218
g4
g5
sg6
(dp2219
I0
I100000
ssg8
(I27
I6
tp2220
sba(iModCell
Cell
p2221
(dp2222
g4
g5
sg6
(dp2223
I0
I1
sI95
I4
ssg8
(I27
I7
tp2224
sba(iModCell
Cell
p2225
(dp2226
g4
g5
sg6
(dp2227
I0
I1
sI96
I4
ssg8
(I27
I8
tp2228
sba(iModCell
Cell
p2229
(dp2230
g4
g5
sg6
(dp2231
I0
I1
sI97
I4
ssg8
(I27
I9
tp2232
sba(iModCell
Cell
p2233
(dp2234
g4
g5
sg6
(dp2235
I0
I1
sI98
I4
ssg8
(I27
I10
tp2236
sba(iModCell
Cell
p2237
(dp2238
g4
g5
sg6
(dp2239
I0
I1
sI99
I4
ssg8
(I27
I11
tp2240
sba(iModCell
Cell
p2241
(dp2242
g4
g5
sg6
(dp2243
I0
I1
ssg8
(I27
I12
tp2244
sba(iModCell
Cell
p2245
(dp2246
g4
g5
sg6
(dp2247
I0
I1
ssg8
(I27
I13
tp2248
sba(iModCell
Cell
p2249
(dp2250
g4
g5
sg6
(dp2251
I0
I100000
ssg8
(I27
I14
tp2252
sba(iModCell
Cell
p2253
(dp2254
g4
g5
sg6
(dp2255
I0
I1
ssg8
(I27
I15
tp2256
sba(iModCell
Cell
p2257
(dp2258
g4
g5
sg6
(dp2259
I0
I100000
ssg8
(I27
I16
tp2260
sba(iModCell
Cell
p2261
(dp2262
g4
g5
sg6
(dp2263
I0
I1
ssg8
(I27
I17
tp2264
sba(iModCell
Cell
p2265
(dp2266
g4
g5
sg6
(dp2267
I0
I100000
ssg8
(I27
I18
tp2268
sba(iModCell
Cell
p2269
(dp2270
g4
g5
sg6
(dp2271
I0
I1
ssg8
(I27
I19
tp2272
sbaa(lp2273
(iModCell
Cell
p2274
(dp2275
g4
g5
sg6
(dp2276
I0
I1
ssg8
(I28
I0
tp2277
sba(iModCell
Cell
p2278
(dp2279
g4
g5
sg6
(dp2280
I0
I1
ssg8
(I28
I1
tp2281
sba(iModCell
Cell
p2282
(dp2283
g4
g5
sg6
(dp2284
I0
I100000
ssg8
(I28
I2
tp2285
sba(iModCell
Cell
p2286
(dp2287
g4
g5
sg6
(dp2288
I0
I1
ssg8
(I28
I3
tp2289
sba(iModCell
Cell
p2290
(dp2291
g4
g5
sg6
(dp2292
I0
I100000
ssg8
(I28
I4
tp2293
sba(iModCell
Cell
p2294
(dp2295
g4
g5
sg6
(dp2296
I0
I1
ssg8
(I28
I5
tp2297
sba(iModCell
Cell
p2298
(dp2299
g4
g5
sg6
(dp2300
I0
I100000
ssg8
(I28
I6
tp2301
sba(iModCell
Cell
p2302
(dp2303
g4
g5
sg6
(dp2304
I0
I1
ssg8
(I28
I7
tp2305
sba(iModCell
Cell
p2306
(dp2307
g4
g5
sg6
(dp2308
I0
I100000
ssg8
(I28
I8
tp2309
sba(iModCell
Cell
p2310
(dp2311
g4
g5
sg6
(dp2312
I0
I1
ssg8
(I28
I9
tp2313
sba(iModCell
Cell
p2314
(dp2315
g4
g5
sg6
(dp2316
I0
I100000
ssg8
(I28
I10
tp2317
sba(iModCell
Cell
p2318
(dp2319
g4
g5
sg6
(dp2320
I0
I1
ssg8
(I28
I11
tp2321
sba(iModCell
Cell
p2322
(dp2323
g4
g5
sg6
(dp2324
I0
I100000
ssg8
(I28
I12
tp2325
sba(iModCell
Cell
p2326
(dp2327
g4
g5
sg6
(dp2328
I0
I1
ssg8
(I28
I13
tp2329
sba(iModCell
Cell
p2330
(dp2331
g4
g5
sg6
(dp2332
I0
I100000
ssg8
(I28
I14
tp2333
sba(iModCell
Cell
p2334
(dp2335
g4
g5
sg6
(dp2336
I0
I1
ssg8
(I28
I15
tp2337
sba(iModCell
Cell
p2338
(dp2339
g4
g5
sg6
(dp2340
I0
I100000
ssg8
(I28
I16
tp2341
sba(iModCell
Cell
p2342
(dp2343
g4
g5
sg6
(dp2344
I0
I1
ssg8
(I28
I17
tp2345
sba(iModCell
Cell
p2346
(dp2347
g4
g5
sg6
(dp2348
I0
I100000
ssg8
(I28
I18
tp2349
sba(iModCell
Cell
p2350
(dp2351
g4
g5
sg6
(dp2352
I0
I1
ssg8
(I28
I19
tp2353
sbaa(lp2354
(iModCell
Cell
p2355
(dp2356
g4
g5
sg6
(dp2357
I0
I1
ssg8
(I29
I0
tp2358
sba(iModCell
Cell
p2359
(dp2360
g4
g5
sg6
(dp2361
I0
I1
ssg8
(I29
I1
tp2362
sba(iModCell
Cell
p2363
(dp2364
g4
g5
sg6
(dp2365
I0
I1
ssg8
(I29
I2
tp2366
sba(iModCell
Cell
p2367
(dp2368
g4
g5
sg6
(dp2369
I0
I1
ssg8
(I29
I3
tp2370
sba(iModCell
Cell
p2371
(dp2372
g4
g5
sg6
(dp2373
I0
I1
ssg8
(I29
I4
tp2374
sba(iModCell
Cell
p2375
(dp2376
g4
g5
sg6
(dp2377
I0
I1
ssg8
(I29
I5
tp2378
sba(iModCell
Cell
p2379
(dp2380
g4
g5
sg6
(dp2381
I0
I1
ssg8
(I29
I6
tp2382
sba(iModCell
Cell
p2383
(dp2384
g4
g5
sg6
(dp2385
I0
I1
ssg8
(I29
I7
tp2386
sba(iModCell
Cell
p2387
(dp2388
g4
g5
sg6
(dp2389
I0
I1
ssg8
(I29
I8
tp2390
sba(iModCell
Cell
p2391
(dp2392
g4
g5
sg6
(dp2393
I0
I1
ssg8
(I29
I9
tp2394
sba(iModCell
Cell
p2395
(dp2396
g4
g5
sg6
(dp2397
I0
I1
ssg8
(I29
I10
tp2398
sba(iModCell
Cell
p2399
(dp2400
g4
g5
sg6
(dp2401
I0
I1
ssg8
(I29
I11
tp2402
sba(iModCell
Cell
p2403
(dp2404
g4
g5
sg6
(dp2405
I0
I1
ssg8
(I29
I12
tp2406
sba(iModCell
Cell
p2407
(dp2408
g4
g5
sg6
(dp2409
I0
I1
ssg8
(I29
I13
tp2410
sba(iModCell
Cell
p2411
(dp2412
g4
g5
sg6
(dp2413
I0
I1
ssg8
(I29
I14
tp2414
sba(iModCell
Cell
p2415
(dp2416
g4
g5
sg6
(dp2417
I0
I1
ssg8
(I29
I15
tp2418
sba(iModCell
Cell
p2419
(dp2420
g4
g5
sg6
(dp2421
I0
I1
ssg8
(I29
I16
tp2422
sba(iModCell
Cell
p2423
(dp2424
g4
g5
sg6
(dp2425
I0
I1
ssg8
(I29
I17
tp2426
sba(iModCell
Cell
p2427
(dp2428
g4
g5
sg6
(dp2429
I0
I1
ssg8
(I29
I18
tp2430
sba(iModCell
Cell
p2431
(dp2432
g4
g5
sg6
(dp2433
I0
I1
ssg8
(I29
I19
tp2434
sbaa.